target datalayout = "e-m:e-p270:32:32-p271:32:32-p272:64:64-i64:64-i128:128-f80:128-n8:16:32:64-S128"
target triple = "x86_64-pc-linux-gnu"

%struct.FFBitStreamFilter = type { %struct.AVBitStreamFilter, i32, ptr, ptr, ptr, ptr }
%struct.AVBitStreamFilter = type { ptr, ptr, ptr }
%struct.AVBSFContext = type { ptr, ptr, ptr, ptr, ptr, %struct.AVRational, %struct.AVRational }
%struct.AVRational = type { i32, i32 }
%struct.FFBSFContext = type { %struct.AVBSFContext, ptr, i32 }

@bsf_class = internal constant { ptr, ptr, ptr, i32, i32, i32, i32, ptr, ptr, ptr, ptr, i32, [4 x i8] } { ptr @.str.6, ptr @bsf_to_name, ptr null, i32 3932772, i32 0, i32 0, i32 8, ptr null, ptr null, ptr @bsf_child_next, ptr @ff_bsf_child_class_iterate, i32 0, [4 x i8] zeroinitializer }, align 8

; Function Attrs: alwaysinline nounwind uwtable
define internal ptr @ff_bsf(ptr noundef %0) #2 {
  %2 = alloca ptr, align 8
  store ptr %0, ptr %2, align 8, !tbaa !27
  %3 = load ptr, ptr %2, align 8, !tbaa !27
  ret ptr %3
}

; Function Attrs: nounwind uwtable
define i32 @av_bsf_alloc(ptr noundef %0, ptr noundef %1) #0 {
  %3 = alloca i32, align 4
  %4 = alloca ptr, align 8
  %5 = alloca ptr, align 8
  %6 = alloca ptr, align 8
  %7 = alloca ptr, align 8
  %8 = alloca i32, align 4
  %9 = alloca i32, align 4
  store ptr %0, ptr %4, align 8, !tbaa !27
  store ptr %1, ptr %5, align 8, !tbaa !4
  call void @llvm.lifetime.start.p0(i64 8, ptr %6) #6
  call void @llvm.lifetime.start.p0(i64 8, ptr %7) #6
  call void @llvm.lifetime.start.p0(i64 4, ptr %8) #6
  %10 = call noalias ptr @av_mallocz(i64 noundef 72)
  store ptr %10, ptr %7, align 8, !tbaa !12
  %11 = load ptr, ptr %7, align 8, !tbaa !12
  %12 = icmp ne ptr %11, null
  br i1 %12, label %14, label %13

13:                                               ; preds = %2
  store i32 -12, ptr %3, align 4
  store i32 1, ptr %9, align 4
  br label %88

14:                                               ; preds = %2
  %15 = load ptr, ptr %7, align 8, !tbaa !12
  %16 = getelementptr inbounds nuw %struct.FFBSFContext, ptr %15, i32 0, i32 0
  store ptr %16, ptr %6, align 8, !tbaa !10
  %17 = load ptr, ptr %6, align 8, !tbaa !10
  %18 = getelementptr inbounds nuw %struct.AVBSFContext, ptr %17, i32 0, i32 0
  store ptr @bsf_class, ptr %18, align 8, !tbaa !28
  %19 = load ptr, ptr %4, align 8, !tbaa !27
  %20 = load ptr, ptr %6, align 8, !tbaa !10
  %21 = getelementptr inbounds nuw %struct.AVBSFContext, ptr %20, i32 0, i32 1
  store ptr %19, ptr %21, align 8, !tbaa !21
  %22 = call ptr @avcodec_parameters_alloc()
  %23 = load ptr, ptr %6, align 8, !tbaa !10
  %24 = getelementptr inbounds nuw %struct.AVBSFContext, ptr %23, i32 0, i32 3
  store ptr %22, ptr %24, align 8, !tbaa !29
  %25 = call ptr @avcodec_parameters_alloc()
  %26 = load ptr, ptr %6, align 8, !tbaa !10
  %27 = getelementptr inbounds nuw %struct.AVBSFContext, ptr %26, i32 0, i32 4
  store ptr %25, ptr %27, align 8, !tbaa !30
  %28 = load ptr, ptr %6, align 8, !tbaa !10
  %29 = getelementptr inbounds nuw %struct.AVBSFContext, ptr %28, i32 0, i32 3
  %30 = load ptr, ptr %29, align 8, !tbaa !29
  %31 = icmp ne ptr %30, null
  br i1 %31, label %32, label %37

32:                                               ; preds = %14
  %33 = load ptr, ptr %6, align 8, !tbaa !10
  %34 = getelementptr inbounds nuw %struct.AVBSFContext, ptr %33, i32 0, i32 4
  %35 = load ptr, ptr %34, align 8, !tbaa !30
  %36 = icmp ne ptr %35, null
  br i1 %36, label %38, label %37

37:                                               ; preds = %32, %14
  store i32 -12, ptr %8, align 4, !tbaa !31
  br label %86

38:                                               ; preds = %32
  %39 = load ptr, ptr %4, align 8, !tbaa !27
  %40 = call ptr @ff_bsf(ptr noundef %39)
  %41 = getelementptr inbounds nuw %struct.FFBitStreamFilter, ptr %40, i32 0, i32 1
  %42 = load i32, ptr %41, align 8, !tbaa !32
  %43 = icmp ne i32 %42, 0
  br i1 %43, label %44, label %74

44:                                               ; preds = %38
  %45 = load ptr, ptr %4, align 8, !tbaa !27
  %46 = call ptr @ff_bsf(ptr noundef %45)
  %47 = getelementptr inbounds nuw %struct.FFBitStreamFilter, ptr %46, i32 0, i32 1
  %48 = load i32, ptr %47, align 8, !tbaa !32
  %49 = sext i32 %48 to i64
  %50 = call noalias ptr @av_mallocz(i64 noundef %49)
  %51 = load ptr, ptr %6, align 8, !tbaa !10
  %52 = getelementptr inbounds nuw %struct.AVBSFContext, ptr %51, i32 0, i32 2
  store ptr %50, ptr %52, align 8, !tbaa !14
  %53 = load ptr, ptr %6, align 8, !tbaa !10
  %54 = getelementptr inbounds nuw %struct.AVBSFContext, ptr %53, i32 0, i32 2
  %55 = load ptr, ptr %54, align 8, !tbaa !14
  %56 = icmp ne ptr %55, null
  br i1 %56, label %58, label %57

57:                                               ; preds = %44
  store i32 -12, ptr %8, align 4, !tbaa !31
  br label %86

58:                                               ; preds = %44
  %59 = load ptr, ptr %4, align 8, !tbaa !27
  %60 = getelementptr inbounds nuw %struct.AVBitStreamFilter, ptr %59, i32 0, i32 2
  %61 = load ptr, ptr %60, align 8, !tbaa !26
  %62 = icmp ne ptr %61, null
  br i1 %62, label %63, label %73

63:                                               ; preds = %58
  %64 = load ptr, ptr %4, align 8, !tbaa !27
  %65 = getelementptr inbounds nuw %struct.AVBitStreamFilter, ptr %64, i32 0, i32 2
  %66 = load ptr, ptr %65, align 8, !tbaa !26
  %67 = load ptr, ptr %6, align 8, !tbaa !10
  %68 = getelementptr inbounds nuw %struct.AVBSFContext, ptr %67, i32 0, i32 2
  %69 = load ptr, ptr %68, align 8, !tbaa !14
  store ptr %66, ptr %69, align 8, !tbaa !33
  %70 = load ptr, ptr %6, align 8, !tbaa !10
  %71 = getelementptr inbounds nuw %struct.AVBSFContext, ptr %70, i32 0, i32 2
  %72 = load ptr, ptr %71, align 8, !tbaa !14
  call void @av_opt_set_defaults(ptr noundef %72)
  br label %73

73:                                               ; preds = %63, %58
  br label %74

74:                                               ; preds = %73, %38
  %75 = call ptr @av_packet_alloc()
  %76 = load ptr, ptr %7, align 8, !tbaa !12
  %77 = getelementptr inbounds nuw %struct.FFBSFContext, ptr %76, i32 0, i32 1
  store ptr %75, ptr %77, align 8, !tbaa !34
  %78 = load ptr, ptr %7, align 8, !tbaa !12
  %79 = getelementptr inbounds nuw %struct.FFBSFContext, ptr %78, i32 0, i32 1
  %80 = load ptr, ptr %79, align 8, !tbaa !34
  %81 = icmp ne ptr %80, null
  br i1 %81, label %83, label %82

82:                                               ; preds = %74
  store i32 -12, ptr %8, align 4, !tbaa !31
  br label %86

83:                                               ; preds = %74
  %84 = load ptr, ptr %6, align 8, !tbaa !10
  %85 = load ptr, ptr %5, align 8, !tbaa !4
  store ptr %84, ptr %85, align 8, !tbaa !10
  store i32 0, ptr %3, align 4
  store i32 1, ptr %9, align 4
  br label %88

86:                                               ; preds = %82, %57, %37
  call void @av_bsf_free(ptr noundef %6)
  %87 = load i32, ptr %8, align 4, !tbaa !31
  store i32 %87, ptr %3, align 4
  store i32 1, ptr %9, align 4
  br label %88

88:                                               ; preds = %86, %83, %13
  call void @llvm.lifetime.end.p0(i64 4, ptr %8) #6
  call void @llvm.lifetime.end.p0(i64 8, ptr %7) #6
  call void @llvm.lifetime.end.p0(i64 8, ptr %6) #6
  %89 = load i32, ptr %3, align 4
  ret i32 %89
}