; Function Attrs: nounwind uwtable
define range(i32 -12, 1) i32 @av_bsf_alloc(ptr noundef %0, ptr noundef writeonly captures(none) %1) local_unnamed_addr #0 {
  %3 = alloca ptr, align 8
  call void @llvm.lifetime.start.p0(i64 8, ptr nonnull %3) #6
  %4 = tail call noalias ptr @av_mallocz(i64 noundef 72) #6
  %.not = icmp eq ptr %4, null
  br i1 %.not, label %28, label %5

5:                                                ; preds = %2
  store ptr %4, ptr %3, align 8, !tbaa !4
  store ptr @bsf_class, ptr %4, align 8, !tbaa !22
  %6 = getelementptr inbounds nuw i8, ptr %4, i64 8
  store ptr %0, ptr %6, align 8, !tbaa !16
  %7 = tail call ptr @avcodec_parameters_alloc() #6
  %8 = getelementptr inbounds nuw i8, ptr %4, i64 24
  store ptr %7, ptr %8, align 8, !tbaa !23
  %9 = tail call ptr @avcodec_parameters_alloc() #6
  %10 = getelementptr inbounds nuw i8, ptr %4, i64 32
  store ptr %9, ptr %10, align 8, !tbaa !24
  %11 = load ptr, ptr %8, align 8, !tbaa !23
  %.not14 = icmp eq ptr %11, null
  %.not15 = icmp eq ptr %9, null
  %or.cond = select i1 %.not14, i1 true, i1 %.not15
  br i1 %or.cond, label %27, label %12

12:                                               ; preds = %5
  %13 = getelementptr inbounds nuw i8, ptr %0, i64 24
  %14 = load i32, ptr %13, align 8, !tbaa !25
  %.not16 = icmp eq i32 %14, 0
  br i1 %.not16, label %23, label %15

15:                                               ; preds = %12
  %16 = sext i32 %14 to i64
  %17 = tail call noalias ptr @av_mallocz(i64 noundef %16) #6
  %18 = getelementptr inbounds nuw i8, ptr %4, i64 16
  store ptr %17, ptr %18, align 8, !tbaa !9
  %.not17 = icmp eq ptr %17, null
  br i1 %.not17, label %27, label %19

19:                                               ; preds = %15
  %20 = getelementptr inbounds nuw i8, ptr %0, i64 16
  %21 = load ptr, ptr %20, align 8, !tbaa !21
  %.not18 = icmp eq ptr %21, null
  br i1 %.not18, label %23, label %22

22:                                               ; preds = %19
  store ptr %21, ptr %17, align 8, !tbaa !26
  tail call void @av_opt_set_defaults(ptr noundef nonnull %17) #6
  br label %23

23:                                               ; preds = %19, %22, %12
  %24 = tail call ptr @av_packet_alloc() #6
  %25 = getelementptr inbounds nuw i8, ptr %4, i64 56
  store ptr %24, ptr %25, align 8, !tbaa !27
  %.not19 = icmp eq ptr %24, null
  br i1 %.not19, label %27, label %26

26:                                               ; preds = %23
  store ptr %4, ptr %1, align 8, !tbaa !4
  br label %28

27:                                               ; preds = %23, %15, %5
  call void @av_bsf_free(ptr noundef nonnull %3)
  br label %28

28:                                               ; preds = %2, %27, %26
  %.011 = phi i32 [ 0, %26 ], [ -12, %27 ], [ -12, %2 ]
  call void @llvm.lifetime.end.p0(i64 8, ptr nonnull %3) #6
  ret i32 %.011
}